target datalayout = "e-m:e-p270:32:32-p271:32:32-p272:64:64-i64:64-i128:128-f80:128-n8:16:32:64-S128"
target triple = "x86_64-pc-linux-gnu"

%struct.Vec_Int_t_ = type { i32, i32, ptr }

@.str.3 = private unnamed_addr constant [118 x i8] c"Constants should be represented in binary Verilog notation <nbits>'b<bits> as char strings (for example, \224'b1010\22).\0A\00", align 1
@.str.4 = private unnamed_addr constant [53 x i8] c"Wrongn symbol (%c) in binary Verilog constant \22%s\22.\0A\00", align 1

; Function Attrs: inlinehint nounwind uwtable
define internal void @Vec_IntGrow(ptr noundef %0, i32 noundef %1) #4 {
  %3 = alloca ptr, align 8
  %4 = alloca i32, align 4
  store ptr %0, ptr %3, align 8, !tbaa !16
  store i32 %1, ptr %4, align 4, !tbaa !3
  %5 = load ptr, ptr %3, align 8, !tbaa !16
  %6 = getelementptr inbounds nuw %struct.Vec_Int_t_, ptr %5, i32 0, i32 0
  %7 = load i32, ptr %6, align 8, !tbaa !38
  %8 = load i32, ptr %4, align 4, !tbaa !3
  %9 = icmp sge i32 %7, %8
  br i1 %9, label %10, label %11

10:                                               ; preds = %2
  br label %36

11:                                               ; preds = %2
  %12 = load ptr, ptr %3, align 8, !tbaa !16
  %13 = getelementptr inbounds nuw %struct.Vec_Int_t_, ptr %12, i32 0, i32 2
  %14 = load ptr, ptr %13, align 8, !tbaa !39
  %15 = icmp ne ptr %14, null
  br i1 %15, label %16, label %24

16:                                               ; preds = %11
  %17 = load ptr, ptr %3, align 8, !tbaa !16
  %18 = getelementptr inbounds nuw %struct.Vec_Int_t_, ptr %17, i32 0, i32 2
  %19 = load ptr, ptr %18, align 8, !tbaa !39
  %20 = load i32, ptr %4, align 4, !tbaa !3
  %21 = sext i32 %20 to i64
  %22 = mul i64 4, %21
  %23 = call ptr @realloc(ptr noundef %19, i64 noundef %22) #15
  br label %29

24:                                               ; preds = %11
  %25 = load i32, ptr %4, align 4, !tbaa !3
  %26 = sext i32 %25 to i64
  %27 = mul i64 4, %26
  %28 = call noalias ptr @malloc(i64 noundef %27) #13
  br label %29

29:                                               ; preds = %24, %16
  %30 = phi ptr [ %23, %16 ], [ %28, %24 ]
  %31 = load ptr, ptr %3, align 8, !tbaa !16
  %32 = getelementptr inbounds nuw %struct.Vec_Int_t_, ptr %31, i32 0, i32 2
  store ptr %30, ptr %32, align 8, !tbaa !39
  %33 = load i32, ptr %4, align 4, !tbaa !3
  %34 = load ptr, ptr %3, align 8, !tbaa !16
  %35 = getelementptr inbounds nuw %struct.Vec_Int_t_, ptr %34, i32 0, i32 0
  store i32 %33, ptr %35, align 8, !tbaa !38
  br label %36

36:                                               ; preds = %29, %10
  ret void
}

; Function Attrs: inlinehint nounwind uwtable
define internal void @Abc_InfoSetBit(ptr noundef %0, i32 noundef %1) #4 {
  %3 = alloca ptr, align 8
  %4 = alloca i32, align 4
  store ptr %0, ptr %3, align 8, !tbaa !7
  store i32 %1, ptr %4, align 4, !tbaa !3
  %5 = load i32, ptr %4, align 4, !tbaa !3
  %6 = and i32 %5, 31
  %7 = shl i32 1, %6
  %8 = load ptr, ptr %3, align 8, !tbaa !7
  %9 = load i32, ptr %4, align 4, !tbaa !3
  %10 = ashr i32 %9, 5
  %11 = sext i32 %10 to i64
  %12 = getelementptr inbounds i32, ptr %8, i64 %11
  %13 = load i32, ptr %12, align 4, !tbaa !3
  %14 = or i32 %13, %7
  store i32 %14, ptr %12, align 4, !tbaa !3
  ret void
}

; Function Attrs: inlinehint nounwind uwtable
define internal ptr @Vec_IntArray(ptr noundef %0) #4 {
  %2 = alloca ptr, align 8
  store ptr %0, ptr %2, align 8, !tbaa !16
  %3 = load ptr, ptr %2, align 8, !tbaa !16
  %4 = getelementptr inbounds nuw %struct.Vec_Int_t_, ptr %3, i32 0, i32 2
  %5 = load ptr, ptr %4, align 8, !tbaa !39
  ret ptr %5
}

; Function Attrs: inlinehint nounwind uwtable
define internal void @Vec_IntFill(ptr noundef %0, i32 noundef %1, i32 noundef %2) #4 {
  %4 = alloca ptr, align 8
  %5 = alloca i32, align 4
  %6 = alloca i32, align 4
  %7 = alloca i32, align 4
  store ptr %0, ptr %4, align 8, !tbaa !16
  store i32 %1, ptr %5, align 4, !tbaa !3
  store i32 %2, ptr %6, align 4, !tbaa !3
  call void @llvm.lifetime.start.p0(i64 4, ptr %7) #11
  %8 = load ptr, ptr %4, align 8, !tbaa !16
  %9 = load i32, ptr %5, align 4, !tbaa !3
  call void @Vec_IntGrow(ptr noundef %8, i32 noundef %9)
  store i32 0, ptr %7, align 4, !tbaa !3
  br label %10

10:                                               ; preds = %22, %3
  %11 = load i32, ptr %7, align 4, !tbaa !3
  %12 = load i32, ptr %5, align 4, !tbaa !3
  %13 = icmp slt i32 %11, %12
  br i1 %13, label %14, label %25

14:                                               ; preds = %10
  %15 = load i32, ptr %6, align 4, !tbaa !3
  %16 = load ptr, ptr %4, align 8, !tbaa !16
  %17 = getelementptr inbounds nuw %struct.Vec_Int_t_, ptr %16, i32 0, i32 2
  %18 = load ptr, ptr %17, align 8, !tbaa !39
  %19 = load i32, ptr %7, align 4, !tbaa !3
  %20 = sext i32 %19 to i64
  %21 = getelementptr inbounds i32, ptr %18, i64 %20
  store i32 %15, ptr %21, align 4, !tbaa !3
  br label %22

22:                                               ; preds = %14
  %23 = load i32, ptr %7, align 4, !tbaa !3
  %24 = add nsw i32 %23, 1
  store i32 %24, ptr %7, align 4, !tbaa !3
  br label %10, !llvm.loop !49

25:                                               ; preds = %10
  %26 = load i32, ptr %5, align 4, !tbaa !3
  %27 = load ptr, ptr %4, align 8, !tbaa !16
  %28 = getelementptr inbounds nuw %struct.Vec_Int_t_, ptr %27, i32 0, i32 1
  store i32 %26, ptr %28, align 4, !tbaa !36
  call void @llvm.lifetime.end.p0(i64 4, ptr %7) #11
  ret void
}

; Function Attrs: inlinehint nounwind uwtable
define internal i32 @Abc_BitWordNum(i32 noundef %0) #4 {
  %2 = alloca i32, align 4
  store i32 %0, ptr %2, align 4, !tbaa !3
  %3 = load i32, ptr %2, align 4, !tbaa !3
  %4 = ashr i32 %3, 5
  %5 = load i32, ptr %2, align 4, !tbaa !3
  %6 = and i32 %5, 31
  %7 = icmp sgt i32 %6, 0
  %8 = zext i1 %7 to i32
  %9 = add nsw i32 %4, %8
  ret i32 %9
}

; Function Attrs: nounwind uwtable
define void @Ndr_ObjReadConstant(ptr noundef %0, ptr noundef %1) #0 {
  %3 = alloca ptr, align 8
  %4 = alloca ptr, align 8
  %5 = alloca i32, align 4
  %6 = alloca i32, align 4
  %7 = alloca i32, align 4
  %8 = alloca i32, align 4
  store ptr %0, ptr %3, align 8, !tbaa !16
  store ptr %1, ptr %4, align 8, !tbaa !24
  call void @llvm.lifetime.start.p0(i64 4, ptr %5) #11
  call void @llvm.lifetime.start.p0(i64 4, ptr %6) #11
  call void @llvm.lifetime.start.p0(i64 4, ptr %7) #11
  %9 = load ptr, ptr %4, align 8, !tbaa !24
  %10 = icmp ne ptr %9, null
  br i1 %10, label %11, label %14

11:                                               ; preds = %2
  %12 = load ptr, ptr %4, align 8, !tbaa !24
  %13 = call i64 @strlen(ptr noundef %12) #12
  br label %15

14:                                               ; preds = %2
  br label %15

15:                                               ; preds = %14, %11
  %16 = phi i64 [ %13, %11 ], [ 0, %14 ]
  %17 = trunc i64 %16 to i32
  store i32 %17, ptr %7, align 4, !tbaa !3
  store i32 0, ptr %6, align 4, !tbaa !3
  br label %18

18:                                               ; preds = %32, %15
  %19 = load i32, ptr %6, align 4, !tbaa !3
  %20 = load i32, ptr %7, align 4, !tbaa !3
  %21 = icmp slt i32 %19, %20
  br i1 %21, label %22, label %35

22:                                               ; preds = %18
  %23 = load ptr, ptr %4, align 8, !tbaa !24
  %24 = load i32, ptr %6, align 4, !tbaa !3
  %25 = sext i32 %24 to i64
  %26 = getelementptr inbounds i8, ptr %23, i64 %25
  %27 = load i8, ptr %26, align 1, !tbaa !10
  %28 = sext i8 %27 to i32
  %29 = icmp eq i32 %28, 98
  br i1 %29, label %30, label %31

30:                                               ; preds = %22
  br label %35

31:                                               ; preds = %22
  br label %32

32:                                               ; preds = %31
  %33 = load i32, ptr %6, align 4, !tbaa !3
  %34 = add nsw i32 %33, 1
  store i32 %34, ptr %6, align 4, !tbaa !3
  br label %18, !llvm.loop !59

35:                                               ; preds = %30, %18
  %36 = load ptr, ptr %4, align 8, !tbaa !24
  %37 = icmp eq ptr %36, null
  br i1 %37, label %46, label %38

38:                                               ; preds = %35
  %39 = load ptr, ptr %4, align 8, !tbaa !24
  %40 = load i32, ptr %6, align 4, !tbaa !3
  %41 = sext i32 %40 to i64
  %42 = getelementptr inbounds i8, ptr %39, i64 %41
  %43 = load i8, ptr %42, align 1, !tbaa !10
  %44 = sext i8 %43 to i32
  %45 = icmp ne i32 %44, 98
  br i1 %45, label %46, label %48

46:                                               ; preds = %38, %35
  %47 = call i32 (ptr, ...) @printf(ptr noundef @.str.3)
  store i32 1, ptr %8, align 4
  br label %99

48:                                               ; preds = %38
  %49 = load ptr, ptr %3, align 8, !tbaa !16
  %50 = load i32, ptr %7, align 4, !tbaa !3
  %51 = load i32, ptr %6, align 4, !tbaa !3
  %52 = sub nsw i32 %50, %51
  %53 = sub nsw i32 %52, 1
  %54 = call i32 @Abc_BitWordNum(i32 noundef %53)
  call void @Vec_IntFill(ptr noundef %49, i32 noundef %54, i32 noundef 0)
  %55 = load i32, ptr %6, align 4, !tbaa !3
  %56 = add nsw i32 %55, 1
  store i32 %56, ptr %5, align 4, !tbaa !3
  br label %57

57:                                               ; preds = %95, %48
  %58 = load i32, ptr %5, align 4, !tbaa !3
  %59 = load i32, ptr %7, align 4, !tbaa !3
  %60 = icmp slt i32 %58, %59
  br i1 %60, label %61, label %98

61:                                               ; preds = %57
  %62 = load ptr, ptr %4, align 8, !tbaa !24
  %63 = load i32, ptr %5, align 4, !tbaa !3
  %64 = sext i32 %63 to i64
  %65 = getelementptr inbounds i8, ptr %62, i64 %64
  %66 = load i8, ptr %65, align 1, !tbaa !10
  %67 = sext i8 %66 to i32
  %68 = icmp eq i32 %67, 49
  br i1 %68, label %69, label %76

69:                                               ; preds = %61
  %70 = load ptr, ptr %3, align 8, !tbaa !16
  %71 = call ptr @Vec_IntArray(ptr noundef %70)
  %72 = load i32, ptr %7, align 4, !tbaa !3
  %73 = load i32, ptr %5, align 4, !tbaa !3
  %74 = sub nsw i32 %72, %73
  %75 = sub nsw i32 %74, 1
  call void @Abc_InfoSetBit(ptr noundef %71, i32 noundef %75)
  br label %94

76:                                               ; preds = %61
  %77 = load ptr, ptr %4, align 8, !tbaa !24
  %78 = load i32, ptr %5, align 4, !tbaa !3
  %79 = sext i32 %78 to i64
  %80 = getelementptr inbounds i8, ptr %77, i64 %79
  %81 = load i8, ptr %80, align 1, !tbaa !10
  %82 = sext i8 %81 to i32
  %83 = icmp ne i32 %82, 48
  br i1 %83, label %84, label %93

84:                                               ; preds = %76
  %85 = load ptr, ptr %4, align 8, !tbaa !24
  %86 = load i32, ptr %5, align 4, !tbaa !3
  %87 = sext i32 %86 to i64
  %88 = getelementptr inbounds i8, ptr %85, i64 %87
  %89 = load i8, ptr %88, align 1, !tbaa !10
  %90 = sext i8 %89 to i32
  %91 = load ptr, ptr %4, align 8, !tbaa !24
  %92 = call i32 (ptr, ...) @printf(ptr noundef @.str.4, i32 noundef %90, ptr noundef %91)
  br label %93

93:                                               ; preds = %84, %76
  br label %94

94:                                               ; preds = %93, %69
  br label %95

95:                                               ; preds = %94
  %96 = load i32, ptr %5, align 4, !tbaa !3
  %97 = add nsw i32 %96, 1
  store i32 %97, ptr %5, align 4, !tbaa !3
  br label %57, !llvm.loop !60

98:                                               ; preds = %57
  store i32 0, ptr %8, align 4
  br label %99

99:                                               ; preds = %98, %46
  call void @llvm.lifetime.end.p0(i64 4, ptr %7) #11
  call void @llvm.lifetime.end.p0(i64 4, ptr %6) #11
  call void @llvm.lifetime.end.p0(i64 4, ptr %5) #11
  %100 = load i32, ptr %8, align 4
  switch i32 %100, label %102 [
    i32 0, label %101
    i32 1, label %101
  ]

101:                                              ; preds = %99, %99
  ret void

102:                                              ; preds = %99
  unreachable
}