; Function Attrs: nounwind uwtable
define void @Ndr_ObjReadConstant(ptr noundef captures(none) %0, ptr noundef %1) local_unnamed_addr #5 {
  %.not = icmp eq ptr %1, null
  br i1 %.not, label %._crit_edge, label %3

3:                                                ; preds = %2
  %4 = tail call i64 @strlen(ptr noundef nonnull dereferenceable(1) %1) #23
  %5 = trunc i64 %4 to i32
  %6 = icmp sgt i32 %5, 0
  br i1 %6, label %.lr.ph.preheader, label %.thread

.lr.ph.preheader:                                 ; preds = %3
  %wide.trip.count = and i64 %4, 2147483647
  br label %.lr.ph

.lr.ph:                                           ; preds = %.lr.ph.preheader, %10
  %indvars.iv = phi i64 [ 0, %.lr.ph.preheader ], [ %indvars.iv.next, %10 ]
  %7 = getelementptr inbounds nuw i8, ptr %1, i64 %indvars.iv
  %8 = load i8, ptr %7, align 1, !tbaa !7
  %9 = icmp eq i8 %8, 98
  br i1 %9, label %.thread.loopexit, label %10

10:                                               ; preds = %.lr.ph
  %indvars.iv.next = add nuw nsw i64 %indvars.iv, 1
  %exitcond.not = icmp eq i64 %indvars.iv.next, %wide.trip.count
  br i1 %exitcond.not, label %.thread, label %.lr.ph, !llvm.loop !59

.thread.loopexit:                                 ; preds = %.lr.ph
  %11 = trunc nuw nsw i64 %indvars.iv to i32
  br label %.thread

.thread:                                          ; preds = %10, %3, %.thread.loopexit
  %.02633 = phi i32 [ %11, %.thread.loopexit ], [ 0, %3 ], [ %5, %10 ]
  %12 = zext nneg i32 %.02633 to i64
  %13 = getelementptr inbounds nuw i8, ptr %1, i64 %12
  %14 = load i8, ptr %13, align 1, !tbaa !7
  %.not30 = icmp eq i8 %14, 98
  br i1 %.not30, label %15, label %._crit_edge

._crit_edge:                                      ; preds = %2, %.thread
  %puts = tail call i32 @puts(ptr nonnull dereferenceable(1) @str)
  br label %.loopexit

15:                                               ; preds = %.thread
  %16 = xor i32 %.02633, -1
  %17 = add i32 %5, %16
  %18 = ashr i32 %17, 5
  %19 = and i32 %17, 31
  %20 = icmp ne i32 %19, 0
  %21 = zext i1 %20 to i32
  %22 = add nsw i32 %18, %21
  %23 = load i32, ptr %0, align 8, !tbaa !20
  %.not.i.i = icmp slt i32 %23, %22
  br i1 %.not.i.i, label %24, label %Vec_IntGrow.exit.i

24:                                               ; preds = %15
  %25 = getelementptr inbounds nuw i8, ptr %0, i64 8
  %26 = load ptr, ptr %25, align 8, !tbaa !21
  %.not9.i.i = icmp eq ptr %26, null
  %27 = sext i32 %22 to i64
  %28 = shl nsw i64 %27, 2
  br i1 %.not9.i.i, label %31, label %29

29:                                               ; preds = %24
  %30 = tail call ptr @realloc(ptr noundef nonnull %26, i64 noundef %28) #25
  br label %33

31:                                               ; preds = %24
  %32 = tail call noalias ptr @malloc(i64 noundef %28) #24
  br label %33

33:                                               ; preds = %31, %29
  %34 = phi ptr [ %30, %29 ], [ %32, %31 ]
  store ptr %34, ptr %25, align 8, !tbaa !21
  store i32 %22, ptr %0, align 8, !tbaa !20
  br label %Vec_IntGrow.exit.i

Vec_IntGrow.exit.i:                               ; preds = %33, %15
  %35 = icmp sgt i32 %22, 0
  br i1 %35, label %.lr.ph.i, label %Vec_IntFill.exit

.lr.ph.i:                                         ; preds = %Vec_IntGrow.exit.i
  %36 = getelementptr inbounds nuw i8, ptr %0, i64 8
  %37 = load ptr, ptr %36, align 8, !tbaa !21
  %wide.trip.count.i = zext nneg i32 %22 to i64
  %38 = shl nuw nsw i64 %wide.trip.count.i, 2
  tail call void @llvm.memset.p0.i64(ptr align 4 %37, i8 0, i64 %38, i1 false), !tbaa !3
  br label %Vec_IntFill.exit

Vec_IntFill.exit:                                 ; preds = %.lr.ph.i, %Vec_IntGrow.exit.i
  %39 = getelementptr inbounds nuw i8, ptr %0, i64 4
  store i32 %22, ptr %39, align 4, !tbaa !18
  %.035 = add nuw nsw i32 %.02633, 1
  %40 = icmp slt i32 %.035, %5
  br i1 %40, label %.lr.ph38, label %.loopexit

.lr.ph38:                                         ; preds = %Vec_IntFill.exit
  %41 = getelementptr i8, ptr %0, i64 8
  %42 = add nuw nsw i64 %12, 1
  br label %43

43:                                               ; preds = %.lr.ph38, %58
  %indvars.iv41 = phi i64 [ %42, %.lr.ph38 ], [ %indvars.iv.next42, %58 ]
  %.0.in36 = phi i32 [ %.02633, %.lr.ph38 ], [ %61, %58 ]
  %44 = getelementptr inbounds nuw i8, ptr %1, i64 %indvars.iv41
  %45 = load i8, ptr %44, align 1, !tbaa !7
  switch i8 %45, label %55 [
    i8 49, label %46
    i8 48, label %58
  ]

46:                                               ; preds = %43
  %.val = load ptr, ptr %41, align 8, !tbaa !21
  %reass.sub = sub i32 %5, %.0.in36
  %47 = add i32 %reass.sub, -2
  %48 = and i32 %47, 31
  %49 = shl nuw i32 1, %48
  %50 = ashr i32 %47, 5
  %51 = sext i32 %50 to i64
  %52 = getelementptr inbounds i32, ptr %.val, i64 %51
  %53 = load i32, ptr %52, align 4, !tbaa !3
  %54 = or i32 %53, %49
  store i32 %54, ptr %52, align 4, !tbaa !3
  br label %58

55:                                               ; preds = %43
  %56 = sext i8 %45 to i32
  %57 = tail call i32 (ptr, ...) @printf(ptr noundef nonnull dereferenceable(1) @.str.4, i32 noundef %56, ptr noundef nonnull %1)
  br label %58

58:                                               ; preds = %43, %46, %55
  %indvars.iv.next42 = add nuw nsw i64 %indvars.iv41, 1
  %59 = trunc nuw i64 %indvars.iv.next42 to i32
  %60 = icmp sgt i32 %5, %59
  %61 = trunc nuw i64 %indvars.iv41 to i32
  br i1 %60, label %43, label %.loopexit, !llvm.loop !60

.loopexit:                                        ; preds = %58, %Vec_IntFill.exit, %._crit_edge
  ret void
}